; Function Attrs: nounwind uwtable
define ptr @PKCS7_get_attribute(ptr noundef readonly captures(none) %0, i32 noundef %1) local_unnamed_addr #0 {
  %3 = getelementptr inbounds nuw i8, ptr %0, i64 48
  %4 = load ptr, ptr %3, align 8, !tbaa !100
  %5 = tail call i32 @X509at_get_attr_by_NID(ptr noundef %4, i32 noundef %1, i32 noundef -1) #4
  %6 = icmp slt i32 %5, 0
  br i1 %6, label %get_attribute.exit, label %7

7:                                                ; preds = %2
  %8 = tail call ptr @X509at_get_attr(ptr noundef %4, i32 noundef %5) #4
  %9 = tail call ptr @X509_ATTRIBUTE_get0_type(ptr noundef %8, i32 noundef 0) #4
  br label %get_attribute.exit

get_attribute.exit:                               ; preds = %2, %7
  %.0.i = phi ptr [ %9, %7 ], [ null, %2 ]
  ret ptr %.0.i
}